target datalayout = "e-m:e-p270:32:32-p271:32:32-p272:64:64-i64:64-i128:128-f80:128-n8:16:32:64-S128"
target triple = "x86_64-pc-linux-gnu"

%struct.GISTBuildBuffers = type { ptr, ptr, i64, ptr, i32, i32, ptr, ptr, i32, i32, ptr, i32, ptr, i32, i32, i32 }
%struct.GISTNodeBuffer = type { i32, i32, i32, ptr, i8, i8, i32 }
%struct.GISTNodeBufferPage = type { i32, i32, [0 x i8] }

@.str.1 = private unnamed_addr constant [46 x i8] c"could not seek to block %ld in temporary file\00", align 1
@.str.2 = private unnamed_addr constant [19 x i8] c"gistbuildbuffers.c\00", align 1
@__func__.ReadTempFileBlock = private unnamed_addr constant [18 x i8] c"ReadTempFileBlock\00", align 1

; Function Attrs: nounwind uwtable
define internal void @gistAddLoadedBuffer(ptr noundef %0, ptr noundef %1) #0 {
  %3 = alloca ptr, align 8
  %4 = alloca ptr, align 8
  store ptr %0, ptr %3, align 8
  store ptr %1, ptr %4, align 8
  %5 = load ptr, ptr %4, align 8
  %6 = getelementptr inbounds nuw %struct.GISTNodeBuffer, ptr %5, i32 0, i32 5
  %7 = load i8, ptr %6, align 1, !range !4, !noundef !5
  %8 = trunc i8 %7 to i1
  br i1 %8, label %9, label %10

9:                                                ; preds = %2
  br label %48

10:                                               ; preds = %2
  %11 = load ptr, ptr %3, align 8
  %12 = getelementptr inbounds nuw %struct.GISTBuildBuffers, ptr %11, i32 0, i32 13
  %13 = load i32, ptr %12, align 8
  %14 = load ptr, ptr %3, align 8
  %15 = getelementptr inbounds nuw %struct.GISTBuildBuffers, ptr %14, i32 0, i32 14
  %16 = load i32, ptr %15, align 4
  %17 = icmp sge i32 %13, %16
  br i1 %17, label %18, label %34

18:                                               ; preds = %10
  %19 = load ptr, ptr %3, align 8
  %20 = getelementptr inbounds nuw %struct.GISTBuildBuffers, ptr %19, i32 0, i32 14
  %21 = load i32, ptr %20, align 4
  %22 = mul i32 %21, 2
  store i32 %22, ptr %20, align 4
  %23 = load ptr, ptr %3, align 8
  %24 = getelementptr inbounds nuw %struct.GISTBuildBuffers, ptr %23, i32 0, i32 12
  %25 = load ptr, ptr %24, align 8
  %26 = load ptr, ptr %3, align 8
  %27 = getelementptr inbounds nuw %struct.GISTBuildBuffers, ptr %26, i32 0, i32 14
  %28 = load i32, ptr %27, align 4
  %29 = sext i32 %28 to i64
  %30 = mul i64 %29, 8
  %31 = call ptr @repalloc(ptr noundef %25, i64 noundef %30)
  %32 = load ptr, ptr %3, align 8
  %33 = getelementptr inbounds nuw %struct.GISTBuildBuffers, ptr %32, i32 0, i32 12
  store ptr %31, ptr %33, align 8
  br label %34

34:                                               ; preds = %18, %10
  %35 = load ptr, ptr %4, align 8
  %36 = load ptr, ptr %3, align 8
  %37 = getelementptr inbounds nuw %struct.GISTBuildBuffers, ptr %36, i32 0, i32 12
  %38 = load ptr, ptr %37, align 8
  %39 = load ptr, ptr %3, align 8
  %40 = getelementptr inbounds nuw %struct.GISTBuildBuffers, ptr %39, i32 0, i32 13
  %41 = load i32, ptr %40, align 8
  %42 = sext i32 %41 to i64
  %43 = getelementptr inbounds ptr, ptr %38, i64 %42
  store ptr %35, ptr %43, align 8
  %44 = load ptr, ptr %3, align 8
  %45 = getelementptr inbounds nuw %struct.GISTBuildBuffers, ptr %44, i32 0, i32 13
  %46 = load i32, ptr %45, align 8
  %47 = add i32 %46, 1
  store i32 %47, ptr %45, align 8
  br label %48

48:                                               ; preds = %34, %9
  ret void
}

; Function Attrs: nounwind uwtable
define internal void @gistBuffersReleaseBlock(ptr noundef %0, i64 noundef %1) #0 {
  %3 = alloca ptr, align 8
  %4 = alloca i64, align 8
  %5 = alloca i32, align 4
  store ptr %0, ptr %3, align 8
  store i64 %1, ptr %4, align 8
  call void @llvm.lifetime.start.p0(i64 4, ptr %5) #7
  %6 = load ptr, ptr %3, align 8
  %7 = getelementptr inbounds nuw %struct.GISTBuildBuffers, ptr %6, i32 0, i32 4
  %8 = load i32, ptr %7, align 8
  %9 = load ptr, ptr %3, align 8
  %10 = getelementptr inbounds nuw %struct.GISTBuildBuffers, ptr %9, i32 0, i32 5
  %11 = load i32, ptr %10, align 4
  %12 = icmp sge i32 %8, %11
  br i1 %12, label %13, label %29

13:                                               ; preds = %2
  %14 = load ptr, ptr %3, align 8
  %15 = getelementptr inbounds nuw %struct.GISTBuildBuffers, ptr %14, i32 0, i32 5
  %16 = load i32, ptr %15, align 4
  %17 = mul i32 %16, 2
  store i32 %17, ptr %15, align 4
  %18 = load ptr, ptr %3, align 8
  %19 = getelementptr inbounds nuw %struct.GISTBuildBuffers, ptr %18, i32 0, i32 3
  %20 = load ptr, ptr %19, align 8
  %21 = load ptr, ptr %3, align 8
  %22 = getelementptr inbounds nuw %struct.GISTBuildBuffers, ptr %21, i32 0, i32 5
  %23 = load i32, ptr %22, align 4
  %24 = sext i32 %23 to i64
  %25 = mul i64 %24, 8
  %26 = call ptr @repalloc(ptr noundef %20, i64 noundef %25)
  %27 = load ptr, ptr %3, align 8
  %28 = getelementptr inbounds nuw %struct.GISTBuildBuffers, ptr %27, i32 0, i32 3
  store ptr %26, ptr %28, align 8
  br label %29

29:                                               ; preds = %13, %2
  %30 = load ptr, ptr %3, align 8
  %31 = getelementptr inbounds nuw %struct.GISTBuildBuffers, ptr %30, i32 0, i32 4
  %32 = load i32, ptr %31, align 8
  %33 = add i32 %32, 1
  store i32 %33, ptr %31, align 8
  store i32 %32, ptr %5, align 4
  %34 = load i64, ptr %4, align 8
  %35 = load ptr, ptr %3, align 8
  %36 = getelementptr inbounds nuw %struct.GISTBuildBuffers, ptr %35, i32 0, i32 3
  %37 = load ptr, ptr %36, align 8
  %38 = load i32, ptr %5, align 4
  %39 = sext i32 %38 to i64
  %40 = getelementptr inbounds i64, ptr %37, i64 %39
  store i64 %34, ptr %40, align 8
  call void @llvm.lifetime.end.p0(i64 4, ptr %5) #7
  ret void
}

; Function Attrs: nounwind uwtable
define internal void @ReadTempFileBlock(ptr noundef %0, i64 noundef %1, ptr noundef %2) #0 {
  %4 = alloca ptr, align 8
  %5 = alloca i64, align 8
  %6 = alloca ptr, align 8
  store ptr %0, ptr %4, align 8
  store i64 %1, ptr %5, align 8
  store ptr %2, ptr %6, align 8
  %7 = load ptr, ptr %4, align 8
  %8 = load i64, ptr %5, align 8
  %9 = call i32 @BufFileSeekBlock(ptr noundef %7, i64 noundef %8)
  %10 = icmp ne i32 %9, 0
  br i1 %10, label %11, label %22

11:                                               ; preds = %3
  br label %12

12:                                               ; preds = %11
  br i1 true, label %13, label %15

13:                                               ; preds = %12
  %14 = call zeroext i1 @errstart_cold(i32 noundef 21, ptr noundef null) #8
  br i1 %14, label %17, label %20

15:                                               ; preds = %12
  %16 = call zeroext i1 @errstart(i32 noundef 21, ptr noundef null)
  br i1 %16, label %17, label %20

17:                                               ; preds = %15, %13
  %18 = load i64, ptr %5, align 8
  %19 = call i32 (ptr, ...) @errmsg_internal(ptr noundef @.str.1, i64 noundef %18)
  call void @errfinish(ptr noundef @.str.2, i32 noundef 753, ptr noundef @__func__.ReadTempFileBlock)
  br label %20

20:                                               ; preds = %17, %15, %13
  unreachable

21:                                               ; No predecessors!
  br label %22

22:                                               ; preds = %21, %3
  %23 = load ptr, ptr %4, align 8
  %24 = load ptr, ptr %6, align 8
  call void @BufFileReadExact(ptr noundef %23, ptr noundef %24, i64 noundef 8192)
  ret void
}

; Function Attrs: nounwind uwtable
define internal ptr @gistAllocateNewPageBuffer(ptr noundef %0) #0 {
  %2 = alloca ptr, align 8
  %3 = alloca ptr, align 8
  store ptr %0, ptr %2, align 8
  call void @llvm.lifetime.start.p0(i64 8, ptr %3) #7
  %4 = load ptr, ptr %2, align 8
  %5 = getelementptr inbounds nuw %struct.GISTBuildBuffers, ptr %4, i32 0, i32 0
  %6 = load ptr, ptr %5, align 8
  %7 = call ptr @MemoryContextAllocZero(ptr noundef %6, i64 noundef 8192)
  store ptr %7, ptr %3, align 8
  %8 = load ptr, ptr %3, align 8
  %9 = getelementptr inbounds nuw %struct.GISTNodeBufferPage, ptr %8, i32 0, i32 0
  store i32 -1, ptr %9, align 4
  %10 = load ptr, ptr %3, align 8
  %11 = getelementptr inbounds nuw %struct.GISTNodeBufferPage, ptr %10, i32 0, i32 1
  store i32 8184, ptr %11, align 4
  %12 = load ptr, ptr %3, align 8
  call void @llvm.lifetime.end.p0(i64 8, ptr %3) #7
  ret ptr %12
}

; Function Attrs: nounwind uwtable
define internal void @gistLoadNodeBuffer(ptr noundef %0, ptr noundef %1) #0 {
  %3 = alloca ptr, align 8
  %4 = alloca ptr, align 8
  store ptr %0, ptr %3, align 8
  store ptr %1, ptr %4, align 8
  %5 = load ptr, ptr %4, align 8
  %6 = getelementptr inbounds nuw %struct.GISTNodeBuffer, ptr %5, i32 0, i32 3
  %7 = load ptr, ptr %6, align 8
  %8 = icmp ne ptr %7, null
  br i1 %8, label %38, label %9

9:                                                ; preds = %2
  %10 = load ptr, ptr %4, align 8
  %11 = getelementptr inbounds nuw %struct.GISTNodeBuffer, ptr %10, i32 0, i32 1
  %12 = load i32, ptr %11, align 4
  %13 = icmp sgt i32 %12, 0
  br i1 %13, label %14, label %38

14:                                               ; preds = %9
  %15 = load ptr, ptr %3, align 8
  %16 = call ptr @gistAllocateNewPageBuffer(ptr noundef %15)
  %17 = load ptr, ptr %4, align 8
  %18 = getelementptr inbounds nuw %struct.GISTNodeBuffer, ptr %17, i32 0, i32 3
  store ptr %16, ptr %18, align 8
  %19 = load ptr, ptr %3, align 8
  %20 = getelementptr inbounds nuw %struct.GISTBuildBuffers, ptr %19, i32 0, i32 1
  %21 = load ptr, ptr %20, align 8
  %22 = load ptr, ptr %4, align 8
  %23 = getelementptr inbounds nuw %struct.GISTNodeBuffer, ptr %22, i32 0, i32 2
  %24 = load i32, ptr %23, align 8
  %25 = zext i32 %24 to i64
  %26 = load ptr, ptr %4, align 8
  %27 = getelementptr inbounds nuw %struct.GISTNodeBuffer, ptr %26, i32 0, i32 3
  %28 = load ptr, ptr %27, align 8
  call void @ReadTempFileBlock(ptr noundef %21, i64 noundef %25, ptr noundef %28)
  %29 = load ptr, ptr %3, align 8
  %30 = load ptr, ptr %4, align 8
  %31 = getelementptr inbounds nuw %struct.GISTNodeBuffer, ptr %30, i32 0, i32 2
  %32 = load i32, ptr %31, align 8
  %33 = zext i32 %32 to i64
  call void @gistBuffersReleaseBlock(ptr noundef %29, i64 noundef %33)
  %34 = load ptr, ptr %3, align 8
  %35 = load ptr, ptr %4, align 8
  call void @gistAddLoadedBuffer(ptr noundef %34, ptr noundef %35)
  %36 = load ptr, ptr %4, align 8
  %37 = getelementptr inbounds nuw %struct.GISTNodeBuffer, ptr %36, i32 0, i32 2
  store i32 -1, ptr %37, align 8
  br label %38

38:                                               ; preds = %14, %9, %2
  ret void
}