; Function Attrs: nounwind uwtable
define internal fastcc void @gistLoadNodeBuffer(ptr noundef captures(none) %0, ptr noundef %1) unnamed_addr #0 {
  %3 = getelementptr inbounds nuw i8, ptr %1, i64 16
  %4 = load ptr, ptr %3, align 8
  %.not = icmp eq ptr %4, null
  br i1 %.not, label %5, label %61

5:                                                ; preds = %2
  %6 = getelementptr inbounds nuw i8, ptr %1, i64 4
  %7 = load i32, ptr %6, align 4
  %8 = icmp sgt i32 %7, 0
  br i1 %8, label %9, label %61

9:                                                ; preds = %5
  %.val = load ptr, ptr %0, align 8
  %10 = tail call noundef ptr @MemoryContextAllocZero(ptr noundef %.val, i64 noundef 8192) #6
  store i32 -1, ptr %10, align 4
  %11 = getelementptr inbounds nuw i8, ptr %10, i64 4
  store i32 8184, ptr %11, align 4
  store ptr %10, ptr %3, align 8
  %12 = getelementptr inbounds nuw i8, ptr %0, i64 8
  %13 = load ptr, ptr %12, align 8
  %14 = getelementptr inbounds nuw i8, ptr %1, i64 8
  %15 = load i32, ptr %14, align 8
  %16 = zext i32 %15 to i64
  %17 = tail call i32 @BufFileSeekBlock(ptr noundef %13, i64 noundef range(i64 0, 4294967296) %16) #6
  %.not.i = icmp eq i32 %17, 0
  br i1 %.not.i, label %ReadTempFileBlock.exit, label %18

18:                                               ; preds = %9
  %19 = tail call zeroext i1 @errstart_cold(i32 noundef 21, ptr noundef null) #7
  tail call void @llvm.assume(i1 %19)
  %20 = tail call i32 (ptr, ...) @errmsg_internal(ptr noundef nonnull @.str.1, i64 noundef range(i64 0, 4294967296) %16) #6
  tail call void @errfinish(ptr noundef nonnull @.str.2, i32 noundef 753, ptr noundef nonnull @__func__.ReadTempFileBlock) #6
  unreachable

ReadTempFileBlock.exit:                           ; preds = %9
  tail call void @BufFileReadExact(ptr noundef %13, ptr noundef nonnull %10, i64 noundef 8192) #6
  %21 = load i32, ptr %14, align 8
  %22 = zext i32 %21 to i64
  %23 = getelementptr inbounds nuw i8, ptr %0, i64 32
  %24 = load i32, ptr %23, align 8
  %25 = getelementptr inbounds nuw i8, ptr %0, i64 36
  %26 = load i32, ptr %25, align 4
  %.not.i12 = icmp slt i32 %24, %26
  br i1 %.not.i12, label %._crit_edge.i, label %27

._crit_edge.i:                                    ; preds = %ReadTempFileBlock.exit
  %.phi.trans.insert.i = getelementptr inbounds nuw i8, ptr %0, i64 24
  %.pre9.i = load ptr, ptr %.phi.trans.insert.i, align 8
  br label %gistBuffersReleaseBlock.exit

27:                                               ; preds = %ReadTempFileBlock.exit
  %28 = shl i32 %26, 1
  store i32 %28, ptr %25, align 4
  %29 = getelementptr inbounds nuw i8, ptr %0, i64 24
  %30 = load ptr, ptr %29, align 8
  %31 = sext i32 %28 to i64
  %32 = shl nsw i64 %31, 3
  %33 = tail call ptr @repalloc(ptr noundef %30, i64 noundef %32) #6
  store ptr %33, ptr %29, align 8
  %.pre.i = load i32, ptr %23, align 8
  br label %gistBuffersReleaseBlock.exit

gistBuffersReleaseBlock.exit:                     ; preds = %._crit_edge.i, %27
  %34 = phi ptr [ %33, %27 ], [ %.pre9.i, %._crit_edge.i ]
  %35 = phi i32 [ %.pre.i, %27 ], [ %24, %._crit_edge.i ]
  %36 = add i32 %35, 1
  store i32 %36, ptr %23, align 8
  %37 = sext i32 %35 to i64
  %38 = getelementptr inbounds i64, ptr %34, i64 %37
  store i64 %22, ptr %38, align 8
  %39 = getelementptr inbounds nuw i8, ptr %1, i64 25
  %40 = load i8, ptr %39, align 1, !range !4, !noundef !5
  %41 = trunc nuw i8 %40 to i1
  br i1 %41, label %gistAddLoadedBuffer.exit, label %42

42:                                               ; preds = %gistBuffersReleaseBlock.exit
  %43 = getelementptr inbounds nuw i8, ptr %0, i64 88
  %44 = load i32, ptr %43, align 8
  %45 = getelementptr inbounds nuw i8, ptr %0, i64 92
  %46 = load i32, ptr %45, align 4
  %.not.i13 = icmp slt i32 %44, %46
  br i1 %.not.i13, label %._crit_edge.i14, label %47

._crit_edge.i14:                                  ; preds = %42
  %.phi.trans.insert.i15 = getelementptr inbounds nuw i8, ptr %0, i64 80
  %.pre.i16 = load ptr, ptr %.phi.trans.insert.i15, align 8
  br label %54

47:                                               ; preds = %42
  %48 = shl i32 %46, 1
  store i32 %48, ptr %45, align 4
  %49 = getelementptr inbounds nuw i8, ptr %0, i64 80
  %50 = load ptr, ptr %49, align 8
  %51 = sext i32 %48 to i64
  %52 = shl nsw i64 %51, 3
  %53 = tail call ptr @repalloc(ptr noundef %50, i64 noundef %52) #6
  store ptr %53, ptr %49, align 8
  %.pre11.i = load i32, ptr %43, align 8
  br label %54

54:                                               ; preds = %47, %._crit_edge.i14
  %55 = phi i32 [ %44, %._crit_edge.i14 ], [ %.pre11.i, %47 ]
  %56 = phi ptr [ %.pre.i16, %._crit_edge.i14 ], [ %53, %47 ]
  %57 = sext i32 %55 to i64
  %58 = getelementptr inbounds ptr, ptr %56, i64 %57
  store ptr %1, ptr %58, align 8
  %59 = load i32, ptr %43, align 8
  %60 = add i32 %59, 1
  store i32 %60, ptr %43, align 8
  br label %gistAddLoadedBuffer.exit

gistAddLoadedBuffer.exit:                         ; preds = %gistBuffersReleaseBlock.exit, %54
  store i32 -1, ptr %14, align 8
  br label %61

61:                                               ; preds = %gistAddLoadedBuffer.exit, %5, %2
  ret void
}